; Function Attrs: mustprogress nofree norecurse nosync nounwind willreturn memory(argmem: read) uwtable
define { ptr, i64 } @_ZNK7rocksdb19CuckooTableIterator3keyEv(ptr nocapture noundef nonnull readonly align 8 dereferenceable(224) %this) unnamed_addr #8 align 2 {
entry:
  %key_.i = getelementptr inbounds i8, ptr %this, i64 160
  %0 = load ptr, ptr %key_.i, align 8
  %key_size_.i = getelementptr inbounds i8, ptr %this, i64 168
  %1 = load i64, ptr %key_size_.i, align 8
  %.fca.0.insert.i = insertvalue { ptr, i64 } poison, ptr %0, 0
  %.fca.1.insert.i = insertvalue { ptr, i64 } %.fca.0.insert.i, i64 %1, 1
  ret { ptr, i64 } %.fca.1.insert.i
}